; ModuleID = '41/963.cpp'
source_filename = "41/963.cpp"
target datalayout = "e-m:e-p270:32:32-p271:32:32-p272:64:64-i64:64-f80:128-n8:16:32:64-S128"
target triple = "x86_64-pc-linux-gnu"

%"class.std::ios_base::Init" = type { i8 }
%"class.std::basic_ostream" = type { i32 (...)**, %"class.std::basic_ios" }
%"class.std::basic_ios" = type { %"class.std::ios_base", %"class.std::basic_ostream"*, i8, i8, %"class.std::basic_streambuf"*, %"class.std::ctype"*, %"class.std::num_put"*, %"class.std::num_get"* }
%"class.std::ios_base" = type { i32 (...)**, i64, i64, i32, i32, i32, %"struct.std::ios_base::_Callback_list"*, %"struct.std::ios_base::_Words", [8 x %"struct.std::ios_base::_Words"], i32, %"struct.std::ios_base::_Words"*, %"class.std::locale" }
%"struct.std::ios_base::_Callback_list" = type { %"struct.std::ios_base::_Callback_list"*, void (i32, %"class.std::ios_base"*, i32)*, i32, i32 }
%"struct.std::ios_base::_Words" = type { i8*, i64 }
%"class.std::locale" = type { %"class.std::locale::_Impl"* }
%"class.std::locale::_Impl" = type { i32, %"class.std::locale::facet"**, i64, %"class.std::locale::facet"**, i8** }
%"class.std::locale::facet" = type <{ i32 (...)**, i32, [4 x i8] }>
%"class.std::basic_streambuf" = type { i32 (...)**, i8*, i8*, i8*, i8*, i8*, i8*, %"class.std::locale" }
%"class.std::ctype" = type <{ %"class.std::locale::facet.base", [4 x i8], %struct.__locale_struct*, i8, [7 x i8], i32*, i32*, i16*, i8, [256 x i8], [256 x i8], i8, [6 x i8] }>
%"class.std::locale::facet.base" = type <{ i32 (...)**, i32 }>
%struct.__locale_struct = type { [13 x %struct.__locale_data*], i16*, i32*, i32*, [13 x i8*] }
%struct.__locale_data = type opaque
%"class.std::num_put" = type { %"class.std::locale::facet.base", [4 x i8] }
%"class.std::num_get" = type { %"class.std::locale::facet.base", [4 x i8] }

@_ZStL8__ioinit = internal global %"class.std::ios_base::Init" zeroinitializer, align 1
@__dso_handle = external hidden global i8
@_ZSt4cout = external dso_local global %"class.std::basic_ostream", align 8
@.str = private unnamed_addr constant [2 x i8] c" \00", align 1
@llvm.global_ctors = appending global [1 x { i32, void ()*, i8* }] [{ i32, void ()*, i8* } { i32 65535, void ()* @_GLOBAL__sub_I_963.cpp, i8* null }]

; Function Attrs: noinline uwtable
define internal void @__cxx_global_var_init() #0 section ".text.startup" {
  call void @_ZNSt8ios_base4InitC1Ev(%"class.std::ios_base::Init"* @_ZStL8__ioinit)
  %1 = call i32 @__cxa_atexit(void (i8*)* bitcast (void (%"class.std::ios_base::Init"*)* @_ZNSt8ios_base4InitD1Ev to void (i8*)*), i8* getelementptr inbounds (%"class.std::ios_base::Init", %"class.std::ios_base::Init"* @_ZStL8__ioinit, i32 0, i32 0), i8* @__dso_handle) #3
  ret void
}

declare dso_local void @_ZNSt8ios_base4InitC1Ev(%"class.std::ios_base::Init"*) unnamed_addr #1

; Function Attrs: nounwind
declare dso_local void @_ZNSt8ios_base4InitD1Ev(%"class.std::ios_base::Init"*) unnamed_addr #2

; Function Attrs: nounwind
declare dso_local i32 @__cxa_atexit(void (i8*)*, i8*, i8*) #3

; Function Attrs: noinline norecurse uwtable
define dso_local i32 @main() #4 {
  %1 = alloca i32, align 4
  %2 = alloca [6 x i32], align 16
  %3 = alloca [6 x i32], align 16
  %4 = alloca i32, align 4
  %5 = alloca [6 x i32], align 16
  store i32 0, i32* %1, align 4
  %6 = getelementptr inbounds [6 x i32], [6 x i32]* %2, i64 0, i64 1
  store i32 1, i32* %6, align 4
  br label %7

7:                                                ; preds = %98, %0
  %8 = getelementptr inbounds [6 x i32], [6 x i32]* %2, i64 0, i64 1
  %9 = load i32, i32* %8, align 4
  %10 = icmp sle i32 %9, 5
  br i1 %10, label %11, label %102

11:                                               ; preds = %7
  %12 = getelementptr inbounds [6 x i32], [6 x i32]* %2, i64 0, i64 2
  store i32 1, i32* %12, align 8
  br label %13

13:                                               ; preds = %93, %11
  %14 = getelementptr inbounds [6 x i32], [6 x i32]* %2, i64 0, i64 2
  %15 = load i32, i32* %14, align 8
  %16 = icmp sle i32 %15, 5
  br i1 %16, label %17, label %97

17:                                               ; preds = %13
  %18 = getelementptr inbounds [6 x i32], [6 x i32]* %2, i64 0, i64 3
  store i32 1, i32* %18, align 4
  br label %19

19:                                               ; preds = %88, %17
  %20 = getelementptr inbounds [6 x i32], [6 x i32]* %2, i64 0, i64 3
  %21 = load i32, i32* %20, align 4
  %22 = icmp sle i32 %21, 5
  br i1 %22, label %23, label %92

23:                                               ; preds = %19
  %24 = getelementptr inbounds [6 x i32], [6 x i32]* %2, i64 0, i64 4
  store i32 1, i32* %24, align 16
  br label %25

25:                                               ; preds = %83, %23
  %26 = getelementptr inbounds [6 x i32], [6 x i32]* %2, i64 0, i64 4
  %27 = load i32, i32* %26, align 16
  %28 = icmp sle i32 %27, 5
  br i1 %28, label %29, label %87

29:                                               ; preds = %25
  %30 = getelementptr inbounds [6 x i32], [6 x i32]* %2, i64 0, i64 5
  store i32 1, i32* %30, align 4
  br label %31

31:                                               ; preds = %78, %29
  %32 = getelementptr inbounds [6 x i32], [6 x i32]* %2, i64 0, i64 5
  %33 = load i32, i32* %32, align 4
  %34 = icmp sle i32 %33, 5
  br i1 %34, label %35, label %82

35:                                               ; preds = %31
  %36 = getelementptr inbounds [6 x i32], [6 x i32]* %2, i64 0, i64 1
  %37 = load i32, i32* %36, align 4
  %38 = getelementptr inbounds [6 x i32], [6 x i32]* %2, i64 0, i64 2
  %39 = load i32, i32* %38, align 8
  %40 = add nsw i32 %37, %39
  %41 = getelementptr inbounds [6 x i32], [6 x i32]* %2, i64 0, i64 3
  %42 = load i32, i32* %41, align 4
  %43 = add nsw i32 %40, %42
  %44 = getelementptr inbounds [6 x i32], [6 x i32]* %2, i64 0, i64 4
  %45 = load i32, i32* %44, align 16
  %46 = add nsw i32 %43, %45
  %47 = getelementptr inbounds [6 x i32], [6 x i32]* %2, i64 0, i64 5
  %48 = load i32, i32* %47, align 4
  %49 = add nsw i32 %46, %48
  %50 = icmp eq i32 %49, 15
  br i1 %50, label %51, label %77

51:                                               ; preds = %35
  %52 = getelementptr inbounds [6 x i32], [6 x i32]* %2, i64 0, i64 1
  %53 = load i32, i32* %52, align 4
  %54 = icmp eq i32 %53, 5
  %55 = zext i1 %54 to i32
  %56 = getelementptr inbounds [6 x i32], [6 x i32]* %3, i64 0, i64 1
  store i32 %55, i32* %56, align 4
  %57 = getelementptr inbounds [6 x i32], [6 x i32]* %2, i64 0, i64 2
  %58 = load i32, i32* %57, align 8
  %59 = icmp eq i32 %58, 2
  %60 = zext i1 %59 to i32
  %61 = getelementptr inbounds [6 x i32], [6 x i32]* %3, i64 0, i64 2
  store i32 %60, i32* %61, align 8
  %62 = getelementptr inbounds [6 x i32], [6 x i32]* %2, i64 0, i64 5
  %63 = load i32, i32* %62, align 4
  %64 = icmp eq i32 %63, 1
  %65 = zext i1 %64 to i32
  %66 = getelementptr inbounds [6 x i32], [6 x i32]* %3, i64 0, i64 3
  store i32 %65, i32* %66, align 4
  %67 = getelementptr inbounds [6 x i32], [6 x i32]* %2, i64 0, i64 1
  %68 = load i32, i32* %67, align 4
  %69 = icmp ne i32 %68, 3
  %70 = zext i1 %69 to i32
  %71 = getelementptr inbounds [6 x i32], [6 x i32]* %3, i64 0, i64 4
  store i32 %70, i32* %71, align 16
  %72 = getelementptr inbounds [6 x i32], [6 x i32]* %2, i64 0, i64 1
  %73 = load i32, i32* %72, align 4
  %74 = icmp eq i32 %73, 4
  %75 = zext i1 %74 to i32
  %76 = getelementptr inbounds [6 x i32], [6 x i32]* %3, i64 0, i64 5
  store i32 %75, i32* %76, align 4
  br label %77

77:                                               ; preds = %51, %35
  br label %78

78:                                               ; preds = %77
  %79 = getelementptr inbounds [6 x i32], [6 x i32]* %2, i64 0, i64 5
  %80 = load i32, i32* %79, align 4
  %81 = add nsw i32 %80, 1
  store i32 %81, i32* %79, align 4
  br label %31

82:                                               ; preds = %31
  br label %83

83:                                               ; preds = %82
  %84 = getelementptr inbounds [6 x i32], [6 x i32]* %2, i64 0, i64 4
  %85 = load i32, i32* %84, align 16
  %86 = add nsw i32 %85, 1
  store i32 %86, i32* %84, align 16
  br label %25

87:                                               ; preds = %25
  br label %88

88:                                               ; preds = %87
  %89 = getelementptr inbounds [6 x i32], [6 x i32]* %2, i64 0, i64 3
  %90 = load i32, i32* %89, align 4
  %91 = add nsw i32 %90, 1
  store i32 %91, i32* %89, align 4
  br label %19

92:                                               ; preds = %19
  br label %93

93:                                               ; preds = %92
  %94 = getelementptr inbounds [6 x i32], [6 x i32]* %2, i64 0, i64 2
  %95 = load i32, i32* %94, align 8
  %96 = add nsw i32 %95, 1
  store i32 %96, i32* %94, align 8
  br label %13

97:                                               ; preds = %13
  br label %98

98:                                               ; preds = %97
  %99 = getelementptr inbounds [6 x i32], [6 x i32]* %2, i64 0, i64 1
  %100 = load i32, i32* %99, align 4
  %101 = add nsw i32 %100, 1
  store i32 %101, i32* %99, align 4
  br label %7

102:                                              ; preds = %7
  %103 = call dereferenceable(272) %"class.std::basic_ostream"* @_ZNSolsEi(%"class.std::basic_ostream"* @_ZSt4cout, i32 5)
  %104 = call dereferenceable(272) %"class.std::basic_ostream"* @_ZStlsISt11char_traitsIcEERSt13basic_ostreamIcT_ES5_PKc(%"class.std::basic_ostream"* dereferenceable(272) %103, i8* getelementptr inbounds ([2 x i8], [2 x i8]* @.str, i64 0, i64 0))
  %105 = call dereferenceable(272) %"class.std::basic_ostream"* @_ZNSolsEi(%"class.std::basic_ostream"* %104, i32 2)
  %106 = call dereferenceable(272) %"class.std::basic_ostream"* @_ZStlsISt11char_traitsIcEERSt13basic_ostreamIcT_ES5_PKc(%"class.std::basic_ostream"* dereferenceable(272) %105, i8* getelementptr inbounds ([2 x i8], [2 x i8]* @.str, i64 0, i64 0))
  %107 = call dereferenceable(272) %"class.std::basic_ostream"* @_ZNSolsEi(%"class.std::basic_ostream"* %106, i32 1)
  %108 = call dereferenceable(272) %"class.std::basic_ostream"* @_ZStlsISt11char_traitsIcEERSt13basic_ostreamIcT_ES5_PKc(%"class.std::basic_ostream"* dereferenceable(272) %107, i8* getelementptr inbounds ([2 x i8], [2 x i8]* @.str, i64 0, i64 0))
  %109 = call dereferenceable(272) %"class.std::basic_ostream"* @_ZNSolsEi(%"class.std::basic_ostream"* %108, i32 3)
  %110 = call dereferenceable(272) %"class.std::basic_ostream"* @_ZStlsISt11char_traitsIcEERSt13basic_ostreamIcT_ES5_PKc(%"class.std::basic_ostream"* dereferenceable(272) %109, i8* getelementptr inbounds ([2 x i8], [2 x i8]* @.str, i64 0, i64 0))
  %111 = call dereferenceable(272) %"class.std::basic_ostream"* @_ZNSolsEi(%"class.std::basic_ostream"* %110, i32 4)
  ret i32 0
}

declare dso_local dereferenceable(272) %"class.std::basic_ostream"* @_ZStlsISt11char_traitsIcEERSt13basic_ostreamIcT_ES5_PKc(%"class.std::basic_ostream"* dereferenceable(272), i8*) #1

declare dso_local dereferenceable(272) %"class.std::basic_ostream"* @_ZNSolsEi(%"class.std::basic_ostream"*, i32) #1

; Function Attrs: noinline uwtable
define internal void @_GLOBAL__sub_I_963.cpp() #0 section ".text.startup" {
  call void @__cxx_global_var_init()
  ret void
}


!llvm.module.flags = !{!0}
!llvm.ident = !{!1}

!0 = !{i32 1, !"wchar_size", i32 4}
!1 = !{!"clang version 10.0.0-4ubuntu1 "}
